; Function Attrs: mustprogress uwtable
define hidden noalias noundef nonnull ptr @_ZNK3ue213ComponentByte5cloneEv(ptr nocapture noundef nonnull readonly align 8 dereferenceable(20) %this) unnamed_addr #0 align 2 personality ptr @__gxx_personality_v0 {
invoke.cont:
  %call = tail call noalias noundef nonnull dereferenceable(24) ptr @_Znwm(i64 noundef 24) #9
  %pos_begin.i.i = getelementptr inbounds i8, ptr %call, i64 8
  %pos_begin2.i.i = getelementptr inbounds i8, ptr %this, i64 8
  %0 = load <2 x i32>, ptr %pos_begin2.i.i, align 8
  store <2 x i32> %0, ptr %pos_begin.i.i, align 8
  store ptr getelementptr inbounds ({ [17 x ptr] }, ptr @_ZTVN3ue213ComponentByteE, i64 0, i32 0, i64 2), ptr %call, align 8
  %position.i = getelementptr inbounds i8, ptr %call, i64 16
  %position2.i = getelementptr inbounds i8, ptr %this, i64 16
  %1 = load i32, ptr %position2.i, align 8
  store i32 %1, ptr %position.i, align 8
  ret ptr %call
}